target datalayout = "e-m:e-p270:32:32-p271:32:32-p272:64:64-i64:64-i128:128-f80:128-n8:16:32:64-S128"
target triple = "x86_64-pc-linux-gnu"

%struct._zval_struct = type { %union._zend_value, %union.anon.3, %union.anon.6 }
%union._zend_value = type { i64 }
%union.anon.3 = type { i32 }
%union.anon.6 = type { i32 }
%struct._zend_array = type { %struct._zend_refcounted_h, %union.anon.0, i32, %union.anon.1, i32, i32, i32, i32, i64, ptr }
%struct._zend_refcounted_h = type { i32, %union.anon }
%union.anon = type { i32 }
%union.anon.0 = type { i32 }
%union.anon.1 = type { ptr }
%struct._zend_pcre_globals = type { %struct._zend_array, i64, i64, i8, i32, %struct._zval_struct, %struct._zval_struct, ptr }

@pcre_globals = dso_local global %struct._zend_pcre_globals zeroinitializer, align 8
@mctx = internal global ptr null, align 8

; Function Attrs: nounwind uwtable
define internal i32 @OnUpdateRecursionLimit(ptr noundef %0, ptr noundef %1, ptr noundef %2, ptr noundef %3, ptr noundef %4, i32 noundef %5) #0 {
  %7 = alloca ptr, align 8
  %8 = alloca ptr, align 8
  %9 = alloca ptr, align 8
  %10 = alloca ptr, align 8
  %11 = alloca ptr, align 8
  %12 = alloca i32, align 4
  store ptr %0, ptr %7, align 8, !tbaa !157
  store ptr %1, ptr %8, align 8, !tbaa !4
  store ptr %2, ptr %9, align 8, !tbaa !68
  store ptr %3, ptr %10, align 8, !tbaa !68
  store ptr %4, ptr %11, align 8, !tbaa !68
  store i32 %5, ptr %12, align 4, !tbaa !13
  %13 = load ptr, ptr %7, align 8, !tbaa !157
  %14 = load ptr, ptr %8, align 8, !tbaa !4
  %15 = load ptr, ptr %9, align 8, !tbaa !68
  %16 = load ptr, ptr %10, align 8, !tbaa !68
  %17 = load ptr, ptr %11, align 8, !tbaa !68
  %18 = load i32, ptr %12, align 4, !tbaa !13
  %19 = call i32 @OnUpdateLong(ptr noundef %13, ptr noundef %14, ptr noundef %15, ptr noundef %16, ptr noundef %17, i32 noundef %18)
  %20 = load ptr, ptr @mctx, align 8, !tbaa !104
  %21 = icmp ne ptr %20, null
  br i1 %21, label %22, label %27

22:                                               ; preds = %6
  %23 = load ptr, ptr @mctx, align 8, !tbaa !104
  %24 = load i64, ptr getelementptr inbounds nuw (%struct._zend_pcre_globals, ptr @pcre_globals, i32 0, i32 2), align 8, !tbaa !149
  %25 = trunc i64 %24 to i32
  %26 = call i32 @php_pcre2_set_depth_limit(ptr noundef %23, i32 noundef %25)
  br label %27

27:                                               ; preds = %22, %6
  ret i32 0
}